target datalayout = "e-m:e-p270:32:32-p271:32:32-p272:64:64-i64:64-i128:128-f80:128-n8:16:32:64-S128"
target triple = "x86_64-pc-linux-gnu"

%struct.archive_string = type { ptr, i64, i64 }

@.str.2 = private unnamed_addr constant [18 x i8] c"libarchive_XXXXXX\00", align 1
@.str.3 = private unnamed_addr constant [7 x i8] c"TMPDIR\00", align 1
@.str.4 = private unnamed_addr constant [5 x i8] c"/tmp\00", align 1

; Function Attrs: nounwind uwtable
define dso_local void @__archive_ensure_cloexec_flag(i32 noundef %0) #0 {
  %2 = alloca i32, align 4
  %3 = alloca i32, align 4
  store i32 %0, ptr %2, align 4, !tbaa !23
  call void @llvm.lifetime.start.p0(i64 4, ptr %3) #9
  %4 = load i32, ptr %2, align 4, !tbaa !23
  %5 = icmp sge i32 %4, 0
  br i1 %5, label %6, label %21

6:                                                ; preds = %1
  %7 = load i32, ptr %2, align 4, !tbaa !23
  %8 = call i32 (i32, i32, ...) @fcntl(i32 noundef %7, i32 noundef 1)
  store i32 %8, ptr %3, align 4, !tbaa !23
  %9 = load i32, ptr %3, align 4, !tbaa !23
  %10 = icmp ne i32 %9, -1
  br i1 %10, label %11, label %20

11:                                               ; preds = %6
  %12 = load i32, ptr %3, align 4, !tbaa !23
  %13 = and i32 %12, 1
  %14 = icmp eq i32 %13, 0
  br i1 %14, label %15, label %20

15:                                               ; preds = %11
  %16 = load i32, ptr %2, align 4, !tbaa !23
  %17 = load i32, ptr %3, align 4, !tbaa !23
  %18 = or i32 %17, 1
  %19 = call i32 (i32, i32, ...) @fcntl(i32 noundef %16, i32 noundef 2, i32 noundef %18)
  br label %20

20:                                               ; preds = %15, %11, %6
  br label %21

21:                                               ; preds = %20, %1
  call void @llvm.lifetime.end.p0(i64 4, ptr %3) #9
  ret void
}

; Function Attrs: nounwind uwtable
define internal i32 @get_tempdir(ptr noundef %0) #0 {
  %2 = alloca ptr, align 8
  %3 = alloca ptr, align 8
  store ptr %0, ptr %2, align 8, !tbaa !30
  call void @llvm.lifetime.start.p0(i64 8, ptr %3) #9
  %4 = call ptr @getenv(ptr noundef @.str.3) #9
  store ptr %4, ptr %3, align 8, !tbaa !24
  %5 = load ptr, ptr %3, align 8, !tbaa !24
  %6 = icmp eq ptr %5, null
  br i1 %6, label %7, label %8

7:                                                ; preds = %1
  store ptr @.str.4, ptr %3, align 8, !tbaa !24
  br label %8

8:                                                ; preds = %7, %1
  %9 = load ptr, ptr %2, align 8, !tbaa !30
  %10 = getelementptr inbounds nuw %struct.archive_string, ptr %9, i32 0, i32 1
  store i64 0, ptr %10, align 8, !tbaa !28
  %11 = load ptr, ptr %2, align 8, !tbaa !30
  %12 = load ptr, ptr %3, align 8, !tbaa !24
  %13 = load ptr, ptr %3, align 8, !tbaa !24
  %14 = icmp eq ptr %13, null
  br i1 %14, label %15, label %16

15:                                               ; preds = %8
  br label %19

16:                                               ; preds = %8
  %17 = load ptr, ptr %3, align 8, !tbaa !24
  %18 = call i64 @strlen(ptr noundef %17) #10
  br label %19

19:                                               ; preds = %16, %15
  %20 = phi i64 [ 0, %15 ], [ %18, %16 ]
  %21 = call ptr @archive_strncat(ptr noundef %11, ptr noundef %12, i64 noundef %20)
  %22 = load ptr, ptr %2, align 8, !tbaa !30
  %23 = getelementptr inbounds nuw %struct.archive_string, ptr %22, i32 0, i32 1
  %24 = load i64, ptr %23, align 8, !tbaa !28
  %25 = icmp eq i64 %24, 0
  br i1 %25, label %38, label %26

26:                                               ; preds = %19
  %27 = load ptr, ptr %2, align 8, !tbaa !30
  %28 = getelementptr inbounds nuw %struct.archive_string, ptr %27, i32 0, i32 0
  %29 = load ptr, ptr %28, align 8, !tbaa !27
  %30 = load ptr, ptr %2, align 8, !tbaa !30
  %31 = getelementptr inbounds nuw %struct.archive_string, ptr %30, i32 0, i32 1
  %32 = load i64, ptr %31, align 8, !tbaa !28
  %33 = sub i64 %32, 1
  %34 = getelementptr inbounds nuw i8, ptr %29, i64 %33
  %35 = load i8, ptr %34, align 1, !tbaa !18
  %36 = sext i8 %35 to i32
  %37 = icmp ne i32 %36, 47
  br i1 %37, label %38, label %41

38:                                               ; preds = %26, %19
  %39 = load ptr, ptr %2, align 8, !tbaa !30
  %40 = call ptr @archive_strappend_char(ptr noundef %39, i8 noundef signext 47)
  br label %41

41:                                               ; preds = %38, %26
  call void @llvm.lifetime.end.p0(i64 8, ptr %3) #9
  ret i32 0
}

; Function Attrs: nounwind uwtable
define dso_local i32 @__archive_mktemp(ptr noundef %0) #0 {
  %2 = alloca ptr, align 8
  %3 = alloca %struct.archive_string, align 8
  %4 = alloca i32, align 4
  store ptr %0, ptr %2, align 8, !tbaa !24
  call void @llvm.lifetime.start.p0(i64 24, ptr %3) #9
  call void @llvm.lifetime.start.p0(i64 4, ptr %4) #9
  store i32 -1, ptr %4, align 4, !tbaa !23
  br label %5

5:                                                ; preds = %1
  %6 = getelementptr inbounds nuw %struct.archive_string, ptr %3, i32 0, i32 0
  store ptr null, ptr %6, align 8, !tbaa !27
  %7 = getelementptr inbounds nuw %struct.archive_string, ptr %3, i32 0, i32 1
  store i64 0, ptr %7, align 8, !tbaa !28
  %8 = getelementptr inbounds nuw %struct.archive_string, ptr %3, i32 0, i32 2
  store i64 0, ptr %8, align 8, !tbaa !29
  br label %9

9:                                                ; preds = %5
  br label %10

10:                                               ; preds = %9
  %11 = load ptr, ptr %2, align 8, !tbaa !24
  %12 = icmp eq ptr %11, null
  br i1 %12, label %13, label %18

13:                                               ; preds = %10
  %14 = call i32 @get_tempdir(ptr noundef %3)
  %15 = icmp ne i32 %14, 0
  br i1 %15, label %16, label %17

16:                                               ; preds = %13
  br label %66

17:                                               ; preds = %13
  br label %46

18:                                               ; preds = %10
  %19 = getelementptr inbounds nuw %struct.archive_string, ptr %3, i32 0, i32 1
  store i64 0, ptr %19, align 8, !tbaa !28
  %20 = load ptr, ptr %2, align 8, !tbaa !24
  %21 = load ptr, ptr %2, align 8, !tbaa !24
  %22 = icmp eq ptr %21, null
  br i1 %22, label %23, label %24

23:                                               ; preds = %18
  br label %27

24:                                               ; preds = %18
  %25 = load ptr, ptr %2, align 8, !tbaa !24
  %26 = call i64 @strlen(ptr noundef %25) #10
  br label %27

27:                                               ; preds = %24, %23
  %28 = phi i64 [ 0, %23 ], [ %26, %24 ]
  %29 = call ptr @archive_strncat(ptr noundef %3, ptr noundef %20, i64 noundef %28)
  %30 = getelementptr inbounds nuw %struct.archive_string, ptr %3, i32 0, i32 1
  %31 = load i64, ptr %30, align 8, !tbaa !28
  %32 = icmp eq i64 %31, 0
  br i1 %32, label %43, label %33

33:                                               ; preds = %27
  %34 = getelementptr inbounds nuw %struct.archive_string, ptr %3, i32 0, i32 0
  %35 = load ptr, ptr %34, align 8, !tbaa !27
  %36 = getelementptr inbounds nuw %struct.archive_string, ptr %3, i32 0, i32 1
  %37 = load i64, ptr %36, align 8, !tbaa !28
  %38 = sub i64 %37, 1
  %39 = getelementptr inbounds nuw i8, ptr %35, i64 %38
  %40 = load i8, ptr %39, align 1, !tbaa !18
  %41 = sext i8 %40 to i32
  %42 = icmp ne i32 %41, 47
  br i1 %42, label %43, label %45

43:                                               ; preds = %33, %27
  %44 = call ptr @archive_strappend_char(ptr noundef %3, i8 noundef signext 47)
  br label %45

45:                                               ; preds = %43, %33
  br label %46

46:                                               ; preds = %45, %17
  %47 = getelementptr inbounds nuw %struct.archive_string, ptr %3, i32 0, i32 0
  %48 = load ptr, ptr %47, align 8, !tbaa !27
  %49 = call i32 (ptr, i32, ...) @open(ptr noundef %48, i32 noundef 4784258, i32 noundef 384)
  store i32 %49, ptr %4, align 4, !tbaa !23
  %50 = load i32, ptr %4, align 4, !tbaa !23
  %51 = icmp sge i32 %50, 0
  br i1 %51, label %52, label %53

52:                                               ; preds = %46
  br label %66

53:                                               ; preds = %46
  %54 = call ptr @archive_strcat(ptr noundef %3, ptr noundef @.str.2)
  %55 = getelementptr inbounds nuw %struct.archive_string, ptr %3, i32 0, i32 0
  %56 = load ptr, ptr %55, align 8, !tbaa !27
  %57 = call i32 @mkstemp(ptr noundef %56)
  store i32 %57, ptr %4, align 4, !tbaa !23
  %58 = load i32, ptr %4, align 4, !tbaa !23
  %59 = icmp slt i32 %58, 0
  br i1 %59, label %60, label %61

60:                                               ; preds = %53
  br label %66

61:                                               ; preds = %53
  %62 = load i32, ptr %4, align 4, !tbaa !23
  call void @__archive_ensure_cloexec_flag(i32 noundef %62)
  %63 = getelementptr inbounds nuw %struct.archive_string, ptr %3, i32 0, i32 0
  %64 = load ptr, ptr %63, align 8, !tbaa !27
  %65 = call i32 @unlink(ptr noundef %64) #9
  br label %66

66:                                               ; preds = %61, %60, %52, %16
  call void @archive_string_free(ptr noundef %3)
  %67 = load i32, ptr %4, align 4, !tbaa !23
  call void @llvm.lifetime.end.p0(i64 4, ptr %4) #9
  call void @llvm.lifetime.end.p0(i64 24, ptr %3) #9
  ret i32 %67
}