; Function Attrs: nounwind uwtable
define dso_local i32 @__archive_mktemp(ptr noundef %0) local_unnamed_addr #0 {
  %2 = alloca %struct.archive_string, align 8
  call void @llvm.lifetime.start.p0(i64 24, ptr nonnull %2) #18
  %3 = getelementptr inbounds nuw i8, ptr %2, i64 8
  %4 = icmp eq ptr %0, null
  call void @llvm.memset.p0.i64(ptr noundef nonnull align 8 dereferenceable(24) %2, i8 0, i64 24, i1 false)
  br i1 %4, label %5, label %17

5:                                                ; preds = %1
  %6 = tail call ptr @getenv(ptr noundef nonnull @.str.3) #18
  %7 = icmp eq ptr %6, null
  %spec.store.select.i = select i1 %7, ptr @.str.4, ptr %6
  %8 = tail call i64 @strlen(ptr noundef nonnull dereferenceable(1) %spec.store.select.i) #19
  %9 = call ptr @archive_strncat(ptr noundef nonnull %2, ptr noundef nonnull %spec.store.select.i, i64 noundef %8) #18
  %10 = load i64, ptr %3, align 8, !tbaa !22
  %11 = icmp eq i64 %10, 0
  br i1 %11, label %get_tempdir.exit.sink.split, label %12

12:                                               ; preds = %5
  %13 = load ptr, ptr %2, align 8, !tbaa !23
  %14 = getelementptr i8, ptr %13, i64 %10
  %15 = getelementptr i8, ptr %14, i64 -1
  %16 = load i8, ptr %15, align 1, !tbaa !16
  %.not.i = icmp eq i8 %16, 47
  br i1 %.not.i, label %get_tempdir.exit, label %get_tempdir.exit.sink.split

17:                                               ; preds = %1
  %18 = tail call i64 @strlen(ptr noundef nonnull dereferenceable(1) %0) #19
  %19 = call ptr @archive_strncat(ptr noundef nonnull %2, ptr noundef nonnull %0, i64 noundef %18) #18
  %20 = load i64, ptr %3, align 8, !tbaa !22
  %21 = icmp eq i64 %20, 0
  br i1 %21, label %get_tempdir.exit.sink.split, label %22

22:                                               ; preds = %17
  %23 = load ptr, ptr %2, align 8, !tbaa !23
  %24 = getelementptr i8, ptr %23, i64 %20
  %25 = getelementptr i8, ptr %24, i64 -1
  %26 = load i8, ptr %25, align 1, !tbaa !16
  %.not = icmp eq i8 %26, 47
  br i1 %.not, label %get_tempdir.exit, label %get_tempdir.exit.sink.split

get_tempdir.exit.sink.split:                      ; preds = %17, %22, %5, %12
  %27 = call ptr @archive_strappend_char(ptr noundef nonnull %2, i8 noundef signext 47) #18
  br label %get_tempdir.exit

get_tempdir.exit:                                 ; preds = %get_tempdir.exit.sink.split, %12, %22
  %28 = load ptr, ptr %2, align 8, !tbaa !23
  %29 = call i32 (ptr, i32, ...) @open(ptr noundef %28, i32 noundef 4784258, i32 noundef 384) #18
  %30 = icmp sgt i32 %29, -1
  br i1 %30, label %45, label %31

31:                                               ; preds = %get_tempdir.exit
  %32 = call ptr @archive_strcat(ptr noundef nonnull %2, ptr noundef nonnull @.str.2) #18
  %33 = load ptr, ptr %2, align 8, !tbaa !23
  %34 = call i32 @mkstemp(ptr noundef %33) #18
  %35 = icmp slt i32 %34, 0
  br i1 %35, label %45, label %36

36:                                               ; preds = %31
  %37 = call i32 (i32, i32, ...) @fcntl(i32 noundef %34, i32 noundef 1) #18
  %38 = and i32 %37, 1
  %39 = icmp eq i32 %38, 0
  br i1 %39, label %40, label %__archive_ensure_cloexec_flag.exit

40:                                               ; preds = %36
  %41 = or disjoint i32 %37, 1
  %42 = call i32 (i32, i32, ...) @fcntl(i32 noundef %34, i32 noundef 2, i32 noundef %41) #18
  br label %__archive_ensure_cloexec_flag.exit

__archive_ensure_cloexec_flag.exit:               ; preds = %36, %40
  %43 = load ptr, ptr %2, align 8, !tbaa !23
  %44 = call i32 @unlink(ptr noundef %43) #18
  br label %45

45:                                               ; preds = %31, %get_tempdir.exit, %__archive_ensure_cloexec_flag.exit
  %.0 = phi i32 [ %29, %get_tempdir.exit ], [ %34, %31 ], [ %34, %__archive_ensure_cloexec_flag.exit ]
  call void @archive_string_free(ptr noundef nonnull %2) #18
  call void @llvm.lifetime.end.p0(i64 24, ptr nonnull %2) #18
  ret i32 %.0
}